; Function Attrs: mustprogress uwtable
define hidden noundef ptr @_ZN2cv5utils7logging13LogTagManager9NameTable15getFullNameInfoERKNSt7__cxx1112basic_stringIcSt11char_traitsIcESaIcEEE(ptr noundef nonnull align 8 dereferenceable(272) %0, ptr noundef nonnull align 8 dereferenceable(32) %1) local_unnamed_addr #0 align 2 {
  %3 = getelementptr inbounds nuw i8, ptr %0, i64 48
  %4 = tail call ptr @_ZNSt10_HashtableINSt7__cxx1112basic_stringIcSt11char_traitsIcESaIcEEESt4pairIKS5_mESaIS8_ENSt8__detail10_Select1stESt8equal_toIS5_ESt4hashIS5_ENSA_18_Mod_range_hashingENSA_20_Default_ranged_hashENSA_20_Prime_rehash_policyENSA_17_Hashtable_traitsILb1ELb0ELb1EEEE4findERS7_(ptr noundef nonnull align 8 dereferenceable(56) %3, ptr noundef nonnull align 8 dereferenceable(32) %1)
  %5 = icmp eq ptr %4, null
  br i1 %5, label %18, label %6

6:                                                ; preds = %2
  %7 = getelementptr inbounds nuw i8, ptr %4, i64 40
  %8 = load i64, ptr %7, align 8, !tbaa !119
  %9 = getelementptr inbounds nuw i8, ptr %0, i64 8
  %10 = load ptr, ptr %9, align 8, !tbaa !109
  %11 = load ptr, ptr %0, align 8, !tbaa !98
  %12 = ptrtoint ptr %10 to i64
  %13 = ptrtoint ptr %11 to i64
  %14 = sub i64 %12, %13
  %15 = ashr exact i64 %14, 4
  %.not.i.i.i = icmp ult i64 %8, %15
  br i1 %.not.i.i.i, label %_ZN2cv5utils7logging13LogTagManager9NameTable24internal_getFullNameInfoEm.exit, label %16

16:                                               ; preds = %6
  tail call void (ptr, ...) @_ZSt24__throw_out_of_range_fmtPKcz(ptr noundef nonnull @.str.14, i64 noundef %8, i64 noundef %15) #25
  unreachable

_ZN2cv5utils7logging13LogTagManager9NameTable24internal_getFullNameInfoEm.exit: ; preds = %6
  %17 = getelementptr inbounds nuw %"struct.cv::utils::logging::LogTagManager::FullNameInfo", ptr %11, i64 %8
  br label %18

18:                                               ; preds = %2, %_ZN2cv5utils7logging13LogTagManager9NameTable24internal_getFullNameInfoEm.exit
  %.0 = phi ptr [ %17, %_ZN2cv5utils7logging13LogTagManager9NameTable24internal_getFullNameInfoEm.exit ], [ null, %2 ]
  ret ptr %.0
}